; Function Attrs: mustprogress uwtable
define dso_local noundef zeroext i1 @_ZN4Luau6isPrimEPKNS_4TypeENS_13PrimitiveType4TypeE(ptr noundef %0, i32 noundef %1) local_unnamed_addr #2 {
  %3 = tail call noundef ptr @_ZN4Luau6followEPKNS_4TypeENS_12FollowOptionE(ptr noundef %0, i32 noundef 0)
  %.not.i.i = icmp eq ptr %3, null
  br i1 %.not.i.i, label %_ZN4Luau3getINS_13PrimitiveTypeEEEPKT_PKNS_4TypeE.exit.thread, label %4

4:                                                ; preds = %2
  %5 = load i32, ptr %3, align 8, !tbaa !8
  %6 = icmp eq i32 %5, 4
  br i1 %6, label %_ZN4Luau3getINS_13PrimitiveTypeEEEPKT_PKNS_4TypeE.exit, label %_ZN4Luau3getINS_13PrimitiveTypeEEEPKT_PKNS_4TypeE.exit.thread

_ZN4Luau3getINS_13PrimitiveTypeEEEPKT_PKNS_4TypeE.exit: ; preds = %4
  %7 = getelementptr inbounds nuw i8, ptr %3, i64 8
  %8 = load i32, ptr %7, align 8, !tbaa !62
  %9 = icmp eq i32 %8, %1
  br label %_ZN4Luau3getINS_13PrimitiveTypeEEEPKT_PKNS_4TypeE.exit.thread

_ZN4Luau3getINS_13PrimitiveTypeEEEPKT_PKNS_4TypeE.exit.thread: ; preds = %2, %4, %_ZN4Luau3getINS_13PrimitiveTypeEEEPKT_PKNS_4TypeE.exit
  %10 = phi i1 [ %9, %_ZN4Luau3getINS_13PrimitiveTypeEEEPKT_PKNS_4TypeE.exit ], [ false, %4 ], [ false, %2 ]
  ret i1 %10
}